target datalayout = "e-m:e-p270:32:32-p271:32:32-p272:64:64-i64:64-i128:128-f80:128-n8:16:32:64-S128"
target triple = "x86_64-pc-linux-gnu"

%struct.AVFormatContext = type { ptr, ptr, ptr, ptr, ptr, i32, i32, ptr, i32, ptr, i32, ptr, ptr, i64, i64, i64, i32, i32, i32, i64, i64, ptr, i32, i32, ptr, i32, i32, i32, i32, ptr, i64, i32, i32, %struct.AVIOInterruptCB, i32, i32, i32, i32, i64, i32, i32, i32, i32, i32, i32, i32, i32, i32, i32, i32, i32, i64, i32, i32, i32, i32, i32, ptr, ptr, ptr, ptr, i32, ptr, ptr, ptr, ptr, i32, ptr, ptr, i64, ptr, ptr, ptr, i64 }
%struct.AVIOInterruptCB = type { ptr, ptr }
%struct.video_data = type { ptr, i32, i32, i32, i32, i32, i32, i32, i32, ptr, i64, i32, i32, i32, i32, ptr, ptr, ptr, i64, i32, ptr, i32, i32, ptr, i32, ptr, ptr, ptr, ptr, ptr, ptr, ptr }
%struct.v4l2_capability = type { [16 x i8], [32 x i8], [32 x i8], i32, i32, i32, [3 x i32] }

@.str.49 = private unnamed_addr constant [48 x i8] c"libavdevice is not built with libv4l2 support.\0A\00", align 1
@.str.50 = private unnamed_addr constant [33 x i8] c"Cannot open video device %s: %s\0A\00", align 1
@.str.51 = private unnamed_addr constant [28 x i8] c"ioctl(VIDIOC_QUERYCAP): %s\0A\00", align 1
@.str.52 = private unnamed_addr constant [23 x i8] c"fd:%d capabilities:%x\0A\00", align 1
@.str.53 = private unnamed_addr constant [29 x i8] c"Not a video capture device.\0A\00", align 1
@.str.54 = private unnamed_addr constant [55 x i8] c"The device does not support the streaming I/O method.\0A\00", align 1

; Function Attrs: inlinehint nounwind uwtable
define internal ptr @av_make_error_string(ptr noundef %0, i64 noundef %1, i32 noundef %2) #5 {
  %4 = alloca ptr, align 8
  %5 = alloca i64, align 8
  %6 = alloca i32, align 4
  store ptr %0, ptr %4, align 8, !tbaa !102
  store i64 %1, ptr %5, align 8, !tbaa !113
  store i32 %2, ptr %6, align 4, !tbaa !32
  %7 = load i32, ptr %6, align 4, !tbaa !32
  %8 = load ptr, ptr %4, align 8, !tbaa !102
  %9 = load i64, ptr %5, align 8, !tbaa !113
  %10 = call i32 @av_strerror(i32 noundef %7, ptr noundef %8, i64 noundef %9)
  %11 = load ptr, ptr %4, align 8, !tbaa !102
  ret ptr %11
}

; Function Attrs: nounwind uwtable
define internal i32 @device_open(ptr noundef %0, ptr noundef %1) #0 {
  %3 = alloca i32, align 4
  %4 = alloca ptr, align 8
  %5 = alloca ptr, align 8
  %6 = alloca ptr, align 8
  %7 = alloca %struct.v4l2_capability, align 4
  %8 = alloca i32, align 4
  %9 = alloca i32, align 4
  %10 = alloca i32, align 4
  %11 = alloca i32, align 4
  %12 = alloca [64 x i8], align 1
  %13 = alloca [64 x i8], align 1
  store ptr %0, ptr %4, align 8, !tbaa !13
  store ptr %1, ptr %5, align 8, !tbaa !102
  call void @llvm.lifetime.start.p0(i64 8, ptr %6) #10
  %14 = load ptr, ptr %4, align 8, !tbaa !13
  %15 = getelementptr inbounds nuw %struct.AVFormatContext, ptr %14, i32 0, i32 3
  %16 = load ptr, ptr %15, align 8, !tbaa !15
  store ptr %16, ptr %6, align 8, !tbaa !30
  call void @llvm.lifetime.start.p0(i64 104, ptr %7) #10
  call void @llvm.lifetime.start.p0(i64 4, ptr %8) #10
  call void @llvm.lifetime.start.p0(i64 4, ptr %9) #10
  call void @llvm.lifetime.start.p0(i64 4, ptr %10) #10
  store i32 2, ptr %10, align 4, !tbaa !32
  %17 = load ptr, ptr %6, align 8, !tbaa !30
  %18 = getelementptr inbounds nuw %struct.video_data, ptr %17, i32 0, i32 24
  %19 = load i32, ptr %18, align 8, !tbaa !103
  %20 = icmp ne i32 %19, 0
  br i1 %20, label %21, label %23

21:                                               ; preds = %2
  %22 = load ptr, ptr %4, align 8, !tbaa !13
  call void (ptr, i32, ptr, ...) @av_log(ptr noundef %22, i32 noundef 16, ptr noundef @.str.49)
  store i32 -22, ptr %3, align 4
  store i32 1, ptr %11, align 4
  br label %127

23:                                               ; preds = %2
  br label %24

24:                                               ; preds = %23
  %25 = load ptr, ptr %6, align 8, !tbaa !30
  %26 = getelementptr inbounds nuw %struct.video_data, ptr %25, i32 0, i32 25
  store ptr @open64, ptr %26, align 8, !tbaa !104
  %27 = load ptr, ptr %6, align 8, !tbaa !30
  %28 = getelementptr inbounds nuw %struct.video_data, ptr %27, i32 0, i32 26
  store ptr @close, ptr %28, align 8, !tbaa !83
  %29 = load ptr, ptr %6, align 8, !tbaa !30
  %30 = getelementptr inbounds nuw %struct.video_data, ptr %29, i32 0, i32 27
  store ptr @dup, ptr %30, align 8, !tbaa !105
  %31 = load ptr, ptr %6, align 8, !tbaa !30
  %32 = getelementptr inbounds nuw %struct.video_data, ptr %31, i32 0, i32 28
  store ptr @ioctl, ptr %32, align 8, !tbaa !42
  %33 = load ptr, ptr %6, align 8, !tbaa !30
  %34 = getelementptr inbounds nuw %struct.video_data, ptr %33, i32 0, i32 29
  store ptr @read, ptr %34, align 8, !tbaa !106
  %35 = load ptr, ptr %6, align 8, !tbaa !30
  %36 = getelementptr inbounds nuw %struct.video_data, ptr %35, i32 0, i32 30
  store ptr @mmap64, ptr %36, align 8, !tbaa !107
  %37 = load ptr, ptr %6, align 8, !tbaa !30
  %38 = getelementptr inbounds nuw %struct.video_data, ptr %37, i32 0, i32 31
  store ptr @munmap, ptr %38, align 8, !tbaa !108
  br label %39

39:                                               ; preds = %24
  br label %40

40:                                               ; preds = %39
  br label %41

41:                                               ; preds = %40
  %42 = load ptr, ptr %4, align 8, !tbaa !13
  %43 = getelementptr inbounds nuw %struct.AVFormatContext, ptr %42, i32 0, i32 18
  %44 = load i32, ptr %43, align 8, !tbaa !109
  %45 = and i32 %44, 4
  %46 = icmp ne i32 %45, 0
  br i1 %46, label %47, label %50

47:                                               ; preds = %41
  %48 = load i32, ptr %10, align 4, !tbaa !32
  %49 = or i32 %48, 2048
  store i32 %49, ptr %10, align 4, !tbaa !32
  br label %50

50:                                               ; preds = %47, %41
  %51 = load ptr, ptr %6, align 8, !tbaa !30
  %52 = getelementptr inbounds nuw %struct.video_data, ptr %51, i32 0, i32 25
  %53 = load ptr, ptr %52, align 8, !tbaa !104
  %54 = load ptr, ptr %5, align 8, !tbaa !102
  %55 = load i32, ptr %10, align 4, !tbaa !32
  %56 = call i32 (ptr, i32, ...) %53(ptr noundef %54, i32 noundef %55, i32 noundef 0)
  store i32 %56, ptr %8, align 4, !tbaa !32
  %57 = load i32, ptr %8, align 4, !tbaa !32
  %58 = icmp slt i32 %57, 0
  br i1 %58, label %59, label %69

59:                                               ; preds = %50
  %60 = call ptr @__errno_location() #11
  %61 = load i32, ptr %60, align 4, !tbaa !32
  %62 = sub nsw i32 0, %61
  store i32 %62, ptr %9, align 4, !tbaa !32
  %63 = load ptr, ptr %4, align 8, !tbaa !13
  %64 = load ptr, ptr %5, align 8, !tbaa !102
  call void @llvm.memset.p0.i64(ptr align 1 %12, i8 0, i64 64, i1 false)
  %65 = getelementptr inbounds [64 x i8], ptr %12, i64 0, i64 0
  %66 = load i32, ptr %9, align 4, !tbaa !32
  %67 = call ptr @av_make_error_string(ptr noundef %65, i64 noundef 64, i32 noundef %66)
  call void (ptr, i32, ptr, ...) @av_log(ptr noundef %63, i32 noundef 16, ptr noundef @.str.50, ptr noundef %64, ptr noundef %67)
  %68 = load i32, ptr %9, align 4, !tbaa !32
  store i32 %68, ptr %3, align 4
  store i32 1, ptr %11, align 4
  br label %127

69:                                               ; preds = %50
  %70 = load ptr, ptr %6, align 8, !tbaa !30
  %71 = getelementptr inbounds nuw %struct.video_data, ptr %70, i32 0, i32 28
  %72 = load ptr, ptr %71, align 8, !tbaa !42
  %73 = load i32, ptr %8, align 4, !tbaa !32
  %74 = call i32 (i32, i64, ...) %72(i32 noundef %73, i64 noundef 2154321408, ptr noundef %7)
  %75 = icmp slt i32 %74, 0
  br i1 %75, label %76, label %84

76:                                               ; preds = %69
  %77 = call ptr @__errno_location() #11
  %78 = load i32, ptr %77, align 4, !tbaa !32
  %79 = sub nsw i32 0, %78
  store i32 %79, ptr %9, align 4, !tbaa !32
  %80 = load ptr, ptr %4, align 8, !tbaa !13
  call void @llvm.memset.p0.i64(ptr align 1 %13, i8 0, i64 64, i1 false)
  %81 = getelementptr inbounds [64 x i8], ptr %13, i64 0, i64 0
  %82 = load i32, ptr %9, align 4, !tbaa !32
  %83 = call ptr @av_make_error_string(ptr noundef %81, i64 noundef 64, i32 noundef %82)
  call void (ptr, i32, ptr, ...) @av_log(ptr noundef %80, i32 noundef 16, ptr noundef @.str.51, ptr noundef %83)
  br label %120

84:                                               ; preds = %69
  %85 = load ptr, ptr %4, align 8, !tbaa !13
  %86 = load i32, ptr %8, align 4, !tbaa !32
  %87 = getelementptr inbounds nuw %struct.v4l2_capability, ptr %7, i32 0, i32 4
  %88 = load i32, ptr %87, align 4, !tbaa !110
  call void (ptr, i32, ptr, ...) @av_log(ptr noundef %85, i32 noundef 40, ptr noundef @.str.52, i32 noundef %86, i32 noundef %88)
  %89 = getelementptr inbounds nuw %struct.v4l2_capability, ptr %7, i32 0, i32 4
  %90 = load i32, ptr %89, align 4, !tbaa !110
  %91 = and i32 %90, 1
  %92 = icmp ne i32 %91, 0
  br i1 %92, label %93, label %98

93:                                               ; preds = %84
  %94 = load ptr, ptr %6, align 8, !tbaa !30
  %95 = getelementptr inbounds nuw %struct.video_data, ptr %94, i32 0, i32 11
  store i32 0, ptr %95, align 8, !tbaa !112
  %96 = load ptr, ptr %6, align 8, !tbaa !30
  %97 = getelementptr inbounds nuw %struct.video_data, ptr %96, i32 0, i32 12
  store i32 1, ptr %97, align 4, !tbaa !59
  br label %111

98:                                               ; preds = %84
  %99 = getelementptr inbounds nuw %struct.v4l2_capability, ptr %7, i32 0, i32 4
  %100 = load i32, ptr %99, align 4, !tbaa !110
  %101 = and i32 %100, 4096
  %102 = icmp ne i32 %101, 0
  br i1 %102, label %103, label %108

103:                                              ; preds = %98
  %104 = load ptr, ptr %6, align 8, !tbaa !30
  %105 = getelementptr inbounds nuw %struct.video_data, ptr %104, i32 0, i32 11
  store i32 1, ptr %105, align 8, !tbaa !112
  %106 = load ptr, ptr %6, align 8, !tbaa !30
  %107 = getelementptr inbounds nuw %struct.video_data, ptr %106, i32 0, i32 12
  store i32 9, ptr %107, align 4, !tbaa !59
  br label %110

108:                                              ; preds = %98
  %109 = load ptr, ptr %4, align 8, !tbaa !13
  call void (ptr, i32, ptr, ...) @av_log(ptr noundef %109, i32 noundef 16, ptr noundef @.str.53)
  store i32 -19, ptr %9, align 4, !tbaa !32
  br label %120

110:                                              ; preds = %103
  br label %111

111:                                              ; preds = %110, %93
  %112 = getelementptr inbounds nuw %struct.v4l2_capability, ptr %7, i32 0, i32 4
  %113 = load i32, ptr %112, align 4, !tbaa !110
  %114 = and i32 %113, 67108864
  %115 = icmp ne i32 %114, 0
  br i1 %115, label %118, label %116

116:                                              ; preds = %111
  %117 = load ptr, ptr %4, align 8, !tbaa !13
  call void (ptr, i32, ptr, ...) @av_log(ptr noundef %117, i32 noundef 16, ptr noundef @.str.54)
  store i32 -38, ptr %9, align 4, !tbaa !32
  br label %120

118:                                              ; preds = %111
  %119 = load i32, ptr %8, align 4, !tbaa !32
  store i32 %119, ptr %3, align 4
  store i32 1, ptr %11, align 4
  br label %127

120:                                              ; preds = %116, %108, %76
  %121 = load ptr, ptr %6, align 8, !tbaa !30
  %122 = getelementptr inbounds nuw %struct.video_data, ptr %121, i32 0, i32 26
  %123 = load ptr, ptr %122, align 8, !tbaa !83
  %124 = load i32, ptr %8, align 4, !tbaa !32
  %125 = call i32 %123(i32 noundef %124)
  %126 = load i32, ptr %9, align 4, !tbaa !32
  store i32 %126, ptr %3, align 4
  store i32 1, ptr %11, align 4
  br label %127

127:                                              ; preds = %120, %118, %59, %21
  call void @llvm.lifetime.end.p0(i64 4, ptr %10) #10
  call void @llvm.lifetime.end.p0(i64 4, ptr %9) #10
  call void @llvm.lifetime.end.p0(i64 4, ptr %8) #10
  call void @llvm.lifetime.end.p0(i64 104, ptr %7) #10
  call void @llvm.lifetime.end.p0(i64 8, ptr %6) #10
  %128 = load i32, ptr %3, align 4
  ret i32 %128
}