; Function Attrs: nounwind uwtable
define internal fastcc range(i32 -2147483647, -2147483648) i32 @device_open(ptr noundef %0, ptr noundef %1) unnamed_addr #0 {
  %3 = alloca %struct.v4l2_capability, align 4
  %4 = alloca [64 x i8], align 1
  %5 = alloca [64 x i8], align 1
  %6 = getelementptr inbounds nuw i8, ptr %0, i64 24
  %7 = load ptr, ptr %6, align 8, !tbaa !11
  call void @llvm.lifetime.start.p0(i64 104, ptr nonnull %3) #11
  %8 = getelementptr inbounds nuw i8, ptr %7, i64 136
  %9 = load i32, ptr %8, align 8, !tbaa !133
  %.not = icmp eq i32 %9, 0
  br i1 %.not, label %11, label %10

10:                                               ; preds = %2
  tail call void (ptr, i32, ptr, ...) @av_log(ptr noundef nonnull %0, i32 noundef 16, ptr noundef nonnull @.str.49) #11
  br label %54

11:                                               ; preds = %2
  %12 = getelementptr inbounds nuw i8, ptr %7, i64 144
  store ptr @open64, ptr %12, align 8, !tbaa !134
  %13 = getelementptr inbounds nuw i8, ptr %7, i64 152
  store ptr @close, ptr %13, align 8, !tbaa !90
  %14 = getelementptr inbounds nuw i8, ptr %7, i64 160
  store ptr @dup, ptr %14, align 8, !tbaa !135
  %15 = getelementptr inbounds nuw i8, ptr %7, i64 168
  store ptr @ioctl, ptr %15, align 8, !tbaa !34
  %16 = getelementptr inbounds nuw i8, ptr %7, i64 176
  store ptr @read, ptr %16, align 8, !tbaa !136
  %17 = getelementptr inbounds nuw i8, ptr %7, i64 184
  store ptr @mmap64, ptr %17, align 8, !tbaa !137
  %18 = getelementptr inbounds nuw i8, ptr %7, i64 192
  store ptr @munmap, ptr %18, align 8, !tbaa !124
  %19 = getelementptr inbounds nuw i8, ptr %0, i64 128
  %20 = load i32, ptr %19, align 8, !tbaa !138
  %21 = and i32 %20, 4
  %.not39 = icmp eq i32 %21, 0
  %spec.select = select i1 %.not39, i32 2, i32 2050
  %22 = tail call i32 (ptr, i32, ...) @open64(ptr noundef %1, i32 noundef %spec.select, i32 noundef 0) #11
  %23 = icmp slt i32 %22, 0
  br i1 %23, label %24, label %29

24:                                               ; preds = %11
  %25 = tail call ptr @__errno_location() #12
  %26 = load i32, ptr %25, align 4, !tbaa !26
  %27 = sub nsw i32 0, %26
  call void @llvm.memset.p0.i64(ptr noundef nonnull align 1 dereferenceable(64) %4, i8 0, i64 64, i1 false)
  %28 = call i32 @av_strerror(i32 noundef range(i32 -2147483647, -2147483648) %27, ptr noundef nonnull %4, i64 noundef 64) #11
  call void (ptr, i32, ptr, ...) @av_log(ptr noundef nonnull %0, i32 noundef 16, ptr noundef nonnull @.str.50, ptr noundef %1, ptr noundef nonnull %4) #11
  br label %54

29:                                               ; preds = %11
  %30 = load ptr, ptr %15, align 8, !tbaa !34
  %31 = call i32 (i32, i64, ...) %30(i32 noundef %22, i64 noundef 2154321408, ptr noundef nonnull %3) #11
  %32 = icmp slt i32 %31, 0
  br i1 %32, label %33, label %38

33:                                               ; preds = %29
  %34 = tail call ptr @__errno_location() #12
  %35 = load i32, ptr %34, align 4, !tbaa !26
  %36 = sub nsw i32 0, %35
  call void @llvm.memset.p0.i64(ptr noundef nonnull align 1 dereferenceable(64) %5, i8 0, i64 64, i1 false)
  %37 = call i32 @av_strerror(i32 noundef range(i32 -2147483647, -2147483648) %36, ptr noundef nonnull %5, i64 noundef 64) #11
  call void (ptr, i32, ptr, ...) @av_log(ptr noundef nonnull %0, i32 noundef 16, ptr noundef nonnull @.str.51, ptr noundef nonnull %5) #11
  br label %51

38:                                               ; preds = %29
  %39 = getelementptr inbounds nuw i8, ptr %3, i64 84
  %40 = load i32, ptr %39, align 4, !tbaa !139
  call void (ptr, i32, ptr, ...) @av_log(ptr noundef nonnull %0, i32 noundef 40, ptr noundef nonnull @.str.52, i32 noundef %22, i32 noundef %40) #11
  %41 = load i32, ptr %39, align 4, !tbaa !139
  %42 = and i32 %41, 1
  %.not40 = icmp eq i32 %42, 0
  br i1 %.not40, label %43, label %46

43:                                               ; preds = %38
  %44 = and i32 %41, 4096
  %.not41 = icmp eq i32 %44, 0
  br i1 %.not41, label %45, label %46

45:                                               ; preds = %43
  call void (ptr, i32, ptr, ...) @av_log(ptr noundef nonnull %0, i32 noundef 16, ptr noundef nonnull @.str.53) #11
  br label %51

46:                                               ; preds = %43, %38
  %.sink44 = phi i32 [ 0, %38 ], [ 1, %43 ]
  %.sink = phi i32 [ 1, %38 ], [ 9, %43 ]
  %47 = getelementptr inbounds nuw i8, ptr %7, i64 56
  store i32 %.sink44, ptr %47, align 8, !tbaa !96
  %48 = getelementptr inbounds nuw i8, ptr %7, i64 60
  store i32 %.sink, ptr %48, align 4, !tbaa !40
  %49 = and i32 %41, 67108864
  %.not42 = icmp eq i32 %49, 0
  br i1 %.not42, label %50, label %54

50:                                               ; preds = %46
  call void (ptr, i32, ptr, ...) @av_log(ptr noundef nonnull %0, i32 noundef 16, ptr noundef nonnull @.str.54) #11
  br label %51

51:                                               ; preds = %50, %45, %33
  %.036 = phi i32 [ %36, %33 ], [ -38, %50 ], [ -19, %45 ]
  %52 = load ptr, ptr %13, align 8, !tbaa !90
  %53 = call i32 %52(i32 noundef %22) #11
  br label %54

54:                                               ; preds = %46, %51, %24, %10
  %.037 = phi i32 [ -22, %10 ], [ %27, %24 ], [ %.036, %51 ], [ %22, %46 ]
  call void @llvm.lifetime.end.p0(i64 104, ptr nonnull %3) #11
  ret i32 %.037
}